; Function Attrs: mustprogress nofree norecurse nosync nounwind willreturn memory(argmem: read) uwtable
define dso_local { <2 x float>, <2 x float> } @_ZNK15btCylinderShape37localGetSupportingVertexWithoutMarginERK9btVector3(ptr nocapture noundef nonnull readonly align 8 dereferenceable(76) %this, ptr nocapture noundef nonnull readonly align 4 dereferenceable(16) %vec) unnamed_addr #4 align 2 {
entry:
  %m_implicitShapeDimensions.i = getelementptr inbounds i8, ptr %this, i64 48
  %0 = load float, ptr %m_implicitShapeDimensions.i, align 8
  %arrayidx2.i = getelementptr inbounds i8, ptr %this, i64 52
  %1 = load float, ptr %arrayidx2.i, align 4
  %2 = load float, ptr %vec, align 4
  %arrayidx8.i = getelementptr inbounds i8, ptr %vec, i64 8
  %3 = load float, ptr %arrayidx8.i, align 4
  %mul11.i = fmul float %3, %3
  %4 = tail call float @llvm.fmuladd.f32(float %2, float %2, float %mul11.i)
  %sqrt.i = tail call float @llvm.sqrt.f32(float %4)
  %cmp.i = fcmp une float %sqrt.i, 0.000000e+00
  br i1 %cmp.i, label %if.then.i, label %if.else.i

if.then.i:                                        ; preds = %entry
  %div.i = fdiv float %0, %sqrt.i
  %mul.i = fmul float %2, %div.i
  %retval.sroa.0.0.vec.insert.i = insertelement <2 x float> poison, float %mul.i, i64 0
  %arrayidx18.i = getelementptr inbounds i8, ptr %vec, i64 4
  %5 = load float, ptr %arrayidx18.i, align 4
  %cmp19.i = fcmp olt float %5, 0.000000e+00
  %fneg.i = fneg float %1
  %cond.i = select i1 %cmp19.i, float %fneg.i, float %1
  %retval.sroa.0.4.vec.insert.i = insertelement <2 x float> %retval.sroa.0.0.vec.insert.i, float %cond.i, i64 1
  %mul24.i = fmul float %3, %div.i
  %retval.sroa.5.8.vec.insert.i = insertelement <2 x float> <float poison, float undef>, float %mul24.i, i64 0
  br label %_Z21CylinderLocalSupportYRK9btVector3S1_.exit

if.else.i:                                        ; preds = %entry
  %retval.sroa.0.0.vec.insert17.i = insertelement <2 x float> poison, float %0, i64 0
  %arrayidx30.i = getelementptr inbounds i8, ptr %vec, i64 4
  %6 = load float, ptr %arrayidx30.i, align 4
  %cmp32.i = fcmp olt float %6, 0.000000e+00
  %fneg34.i = fneg float %1
  %cond37.i = select i1 %cmp32.i, float %fneg34.i, float %1
  %retval.sroa.0.4.vec.insert19.i = insertelement <2 x float> %retval.sroa.0.0.vec.insert17.i, float %cond37.i, i64 1
  br label %_Z21CylinderLocalSupportYRK9btVector3S1_.exit

_Z21CylinderLocalSupportYRK9btVector3S1_.exit:    ; preds = %if.then.i, %if.else.i
  %retval.sroa.5.0.i = phi <2 x float> [ %retval.sroa.5.8.vec.insert.i, %if.then.i ], [ <float 0.000000e+00, float undef>, %if.else.i ]
  %retval.sroa.0.0.i = phi <2 x float> [ %retval.sroa.0.4.vec.insert.i, %if.then.i ], [ %retval.sroa.0.4.vec.insert19.i, %if.else.i ]
  %.fca.0.insert.i = insertvalue { <2 x float>, <2 x float> } poison, <2 x float> %retval.sroa.0.0.i, 0
  %.fca.1.insert.i = insertvalue { <2 x float>, <2 x float> } %.fca.0.insert.i, <2 x float> %retval.sroa.5.0.i, 1
  ret { <2 x float>, <2 x float> } %.fca.1.insert.i
}